; Function Attrs: mustprogress uwtable
define void @_ZN26MLSceneGLSharedDataContext26removePerMeshViewRequestedEP10QGLContext(ptr noundef nonnull align 8 dereferenceable(168) %0, ptr noundef %1) local_unnamed_addr #9 align 2 {
  %3 = tail call noundef ptr @_ZN10QGLContext14currentContextEv()
  tail call void @_ZN9QGLWidget11makeCurrentEv(ptr noundef nonnull align 8 dereferenceable(48) %0)
  %4 = getelementptr inbounds i8, ptr %0, i64 80
  %5 = load ptr, ptr %4, align 8
  %6 = getelementptr inbounds i8, ptr %0, i64 64
  %.not910.i = icmp eq ptr %5, %6
  br i1 %.not910.i, label %._crit_edge.i, label %.lr.ph.i

.lr.ph.i:                                         ; preds = %2, %11
  %.sroa.06.011.i = phi ptr [ %12, %11 ], [ %5, %2 ]
  %7 = getelementptr inbounds i8, ptr %.sroa.06.011.i, i64 40
  %8 = load ptr, ptr %7, align 8
  %.not.i = icmp eq ptr %8, null
  br i1 %.not.i, label %11, label %9

9:                                                ; preds = %.lr.ph.i
  tail call void @_ZN3vcg48QtThreadSafeGLMeshAttributesMultiViewerBOManagerI6CMeshOP10QGLContext18MLPerViewGLOptionsE10removeViewES3_(ptr noundef nonnull align 8 dereferenceable(512) %8, ptr noundef %1)
  %10 = tail call noundef zeroext i1 @_ZN3vcg48QtThreadSafeGLMeshAttributesMultiViewerBOManagerI6CMeshOP10QGLContext18MLPerViewGLOptionsE13manageBuffersEv(ptr noundef nonnull align 8 dereferenceable(512) %8)
  br label %11

11:                                               ; preds = %9, %.lr.ph.i
  %12 = tail call noundef ptr @_ZSt18_Rb_tree_incrementPSt18_Rb_tree_node_base(ptr noundef nonnull %.sroa.06.011.i) #27
  %.not9.i = icmp eq ptr %12, %6
  br i1 %.not9.i, label %._crit_edge.i, label %.lr.ph.i, !llvm.loop !223

._crit_edge.i:                                    ; preds = %11, %2
  tail call void @_ZN9QGLWidget11doneCurrentEv(ptr noundef nonnull align 8 dereferenceable(48) %0)
  %.not.i.i = icmp eq ptr %3, null
  br i1 %.not.i.i, label %_ZN26MLSceneGLSharedDataContext10removeViewEP10QGLContext.exit, label %13

13:                                               ; preds = %._crit_edge.i
  %14 = load ptr, ptr %3, align 8
  %15 = getelementptr inbounds i8, ptr %14, i64 24
  %16 = load ptr, ptr %15, align 8
  tail call void %16(ptr noundef nonnull align 8 dereferenceable(16) %3)
  br label %_ZN26MLSceneGLSharedDataContext10removeViewEP10QGLContext.exit

_ZN26MLSceneGLSharedDataContext10removeViewEP10QGLContext.exit: ; preds = %._crit_edge.i, %13
  ret void
}